; Function Attrs: nounwind uwtable
define internal void @_WriteData(ptr noundef readonly captures(none) %0, ptr noundef captures(none) %1, i64 noundef %2) #0 {
  %4 = getelementptr inbounds nuw i8, ptr %0, i64 536
  %5 = load ptr, ptr %4, align 8
  %6 = getelementptr inbounds nuw i8, ptr %5, i64 152
  %7 = load ptr, ptr %6, align 8
  %8 = load ptr, ptr %7, align 8
  %9 = load ptr, ptr %8, align 8
  %10 = tail call noundef i64 @fwrite(ptr noundef %1, i64 noundef 1, i64 noundef %2, ptr noundef %9)
  %11 = getelementptr inbounds nuw i8, ptr %8, i64 40
  %12 = load i64, ptr %11, align 8
  %13 = add i64 %12, %10
  store i64 %13, ptr %11, align 8
  %.not = icmp eq i64 %10, %2
  br i1 %.not, label %15, label %14

14:                                               ; preds = %3
  tail call void (i32, i32, ptr, ...) @pg_log_generic(i32 noundef 4, i32 noundef 0, ptr noundef nonnull @.str.30) #17
  tail call void @exit_nicely(i32 noundef 1) #18
  unreachable

15:                                               ; preds = %3
  ret void
}